; Function Attrs: mustprogress nofree norecurse nosync nounwind willreturn memory(readwrite, inaccessiblemem: write) uwtable
define internal noundef nonnull ptr @_ZN6evmone8advanced12_GLOBAL__N_12opIXadL_ZNS0_5instr4implILNS_6OpcodeE51EXadL_ZNS_5instr4core6callerENS_8StackTopERNS_14ExecutionStateEEEEEvRNS0_22AdvancedExecutionStateEEEEEPKNS0_11InstructionESF_SC_(ptr noundef readnone captures(ret: address, provenance) %0, ptr noundef nonnull align 8 captures(none) dereferenceable(564) %1) #5 {
  %3 = getelementptr inbounds nuw i8, ptr %1, i64 552
  %.sroa.0.0.copyload.i = load ptr, ptr %3, align 8, !tbaa !57
  %4 = getelementptr inbounds nuw i8, ptr %1, i64 32
  %5 = load ptr, ptr %4, align 8, !tbaa !128
  %6 = getelementptr inbounds nuw i8, ptr %5, i64 44
  %.sroa.5.4.copyload.i.i = load i32, ptr %6, align 1
  %.sroa.8.12..sroa_idx.i.i = getelementptr inbounds nuw i8, ptr %5, i64 48
  %.sroa.8.12.copyload.i.i = load i64, ptr %.sroa.8.12..sroa_idx.i.i, align 1
  %.sroa.10.12..sroa_idx.i.i = getelementptr inbounds nuw i8, ptr %5, i64 56
  %.sroa.10.12.copyload.i.i = load i64, ptr %.sroa.10.12..sroa_idx.i.i, align 1
  %7 = tail call noundef i64 @llvm.bswap.i64(i64 %.sroa.10.12.copyload.i.i)
  %8 = tail call noundef i64 @llvm.bswap.i64(i64 %.sroa.8.12.copyload.i.i)
  %9 = tail call i32 @llvm.bswap.i32(i32 %.sroa.5.4.copyload.i.i)
  %10 = zext i32 %9 to i64
  store i64 %7, ptr %.sroa.0.0.copyload.i, align 8
  %.sroa.5.0..sroa_idx.i.i = getelementptr inbounds nuw i8, ptr %.sroa.0.0.copyload.i, i64 8
  store i64 %8, ptr %.sroa.5.0..sroa_idx.i.i, align 8
  %.sroa.8.0..sroa_idx.i.i = getelementptr inbounds nuw i8, ptr %.sroa.0.0.copyload.i, i64 16
  store i64 %10, ptr %.sroa.8.0..sroa_idx.i.i, align 8
  %.sroa.10.0..sroa_idx.i.i = getelementptr inbounds nuw i8, ptr %.sroa.0.0.copyload.i, i64 24
  store i64 0, ptr %.sroa.10.0..sroa_idx.i.i, align 8, !tbaa !77
  %11 = load ptr, ptr %3, align 8, !tbaa !67
  %12 = getelementptr inbounds nuw i8, ptr %11, i64 32
  call void @llvm.assume(i1 true) [ "align"(ptr %12, i64 32) ]
  %13 = ptrtoint ptr %12 to i64
  store i64 %13, ptr %3, align 8, !tbaa !57
  %14 = getelementptr inbounds nuw i8, ptr %0, i64 16
  ret ptr %14
}